(iexp_replay
ExpReplay
p0
(dp1
S'total_steps'
p2
I0
sS'mem'
p3
(lp4
sS'mem_size'
p5
F10000.0
sS'batch_size'
p6
I32
sS'state_size'
p7
(lp8
I4
asS'kth'
p9
I-1
sS'drop_rate'
p10
F0.2
sS'start_mem'
p11
F100.0
sb.